target datalayout = "e-m:e-p270:32:32-p271:32:32-p272:64:64-i64:64-i128:128-f80:128-n8:16:32:64-S128"
target triple = "x86_64-pc-linux-gnu"

@.str.8 = private unnamed_addr constant [18 x i8] c"%s[%d] (%s - %s)\0A\00", align 1
@.str.9 = private unnamed_addr constant [14 x i8] c"%s (%s - %s)\0A\00", align 1

; Function Attrs: mustprogress nounwind uwtable
define void @_Z7cmp_strP8_IO_FILEPKciS2_S2_(ptr noundef %0, ptr noundef %1, i32 noundef %2, ptr noundef %3, ptr noundef %4) #0 {
  %6 = alloca ptr, align 8
  %7 = alloca ptr, align 8
  %8 = alloca i32, align 4
  %9 = alloca ptr, align 8
  %10 = alloca ptr, align 8
  store ptr %0, ptr %6, align 8, !tbaa !4
  store ptr %1, ptr %7, align 8, !tbaa !9
  store i32 %2, ptr %8, align 4, !tbaa !11
  store ptr %3, ptr %9, align 8, !tbaa !9
  store ptr %4, ptr %10, align 8, !tbaa !9
  %11 = load ptr, ptr %9, align 8, !tbaa !9
  %12 = load ptr, ptr %10, align 8, !tbaa !9
  %13 = call i32 @strcmp(ptr noundef %11, ptr noundef %12) #7
  %14 = icmp ne i32 %13, 0
  br i1 %14, label %15, label %32

15:                                               ; preds = %5
  %16 = load i32, ptr %8, align 4, !tbaa !11
  %17 = icmp ne i32 %16, -1
  br i1 %17, label %18, label %25

18:                                               ; preds = %15
  %19 = load ptr, ptr %6, align 8, !tbaa !4
  %20 = load ptr, ptr %7, align 8, !tbaa !9
  %21 = load i32, ptr %8, align 4, !tbaa !11
  %22 = load ptr, ptr %9, align 8, !tbaa !9
  %23 = load ptr, ptr %10, align 8, !tbaa !9
  %24 = call i32 (ptr, ptr, ...) @fprintf(ptr noundef %19, ptr noundef @.str.8, ptr noundef %20, i32 noundef %21, ptr noundef %22, ptr noundef %23) #6
  br label %31

25:                                               ; preds = %15
  %26 = load ptr, ptr %6, align 8, !tbaa !4
  %27 = load ptr, ptr %7, align 8, !tbaa !9
  %28 = load ptr, ptr %9, align 8, !tbaa !9
  %29 = load ptr, ptr %10, align 8, !tbaa !9
  %30 = call i32 (ptr, ptr, ...) @fprintf(ptr noundef %26, ptr noundef @.str.9, ptr noundef %27, ptr noundef %28, ptr noundef %29) #6
  br label %31

31:                                               ; preds = %25, %18
  br label %32

32:                                               ; preds = %31, %5
  ret void
}