; Function Attrs: mustprogress nofree nounwind uwtable
define void @_Z7cmp_strP8_IO_FILEPKciS2_S2_(ptr noundef captures(none) %0, ptr noundef %1, i32 noundef %2, ptr noundef %3, ptr noundef %4) local_unnamed_addr #0 {
  %6 = tail call i32 @strcmp(ptr noundef nonnull dereferenceable(1) %3, ptr noundef nonnull dereferenceable(1) %4) #7
  %.not = icmp eq i32 %6, 0
  br i1 %.not, label %12, label %7

7:                                                ; preds = %5
  %.not11 = icmp eq i32 %2, -1
  br i1 %.not11, label %10, label %8

8:                                                ; preds = %7
  %9 = tail call i32 (ptr, ptr, ...) @fprintf(ptr noundef %0, ptr noundef nonnull @.str.8, ptr noundef %1, i32 noundef %2, ptr noundef nonnull %3, ptr noundef nonnull %4) #6
  br label %12

10:                                               ; preds = %7
  %11 = tail call i32 (ptr, ptr, ...) @fprintf(ptr noundef %0, ptr noundef nonnull @.str.9, ptr noundef %1, ptr noundef nonnull %3, ptr noundef nonnull %4) #6
  br label %12

12:                                               ; preds = %8, %10, %5
  ret void
}